target datalayout = "e-m:e-p270:32:32-p271:32:32-p272:64:64-i64:64-i128:128-f80:128-n8:16:32:64-S128"
target triple = "x86_64-pc-linux-gnu"

%struct.grpc_slice = type { ptr, %"union.grpc_slice::grpc_slice_data" }
%"union.grpc_slice::grpc_slice_data" = type { %"struct.grpc_slice::grpc_slice_data::grpc_slice_refcounted", [8 x i8] }
%"struct.grpc_slice::grpc_slice_data::grpc_slice_refcounted" = type { i64, ptr }
%"struct.grpc_slice::grpc_slice_data::grpc_slice_inlined" = type { i8, [23 x i8] }

; Function Attrs: mustprogress nounwind uwtable
define noundef i32 @_Z29grpc_slice_differs_refcountedRK10grpc_sliceS1_(ptr noundef nonnull align 8 dereferenceable(32) %0, ptr noundef nonnull align 8 dereferenceable(32) %1) #7 {
  %3 = alloca i32, align 4
  %4 = alloca ptr, align 8
  %5 = alloca ptr, align 8
  %6 = alloca i64, align 8
  %7 = alloca ptr, align 8
  %8 = alloca i32, align 4
  store ptr %0, ptr %4, align 8, !tbaa !48
  store ptr %1, ptr %5, align 8, !tbaa !48
  call void @llvm.lifetime.start.p0(i64 8, ptr %6) #3
  call void @llvm.lifetime.start.p0(i64 8, ptr %7) #3
  %9 = load ptr, ptr %4, align 8, !tbaa !48
  %10 = getelementptr inbounds nuw %struct.grpc_slice, ptr %9, i32 0, i32 0
  %11 = load ptr, ptr %10, align 8, !tbaa !3
  %12 = icmp ne ptr %11, null
  br i1 %12, label %13, label %22

13:                                               ; preds = %2
  %14 = load ptr, ptr %4, align 8, !tbaa !48
  %15 = getelementptr inbounds nuw %struct.grpc_slice, ptr %14, i32 0, i32 1
  %16 = getelementptr inbounds nuw %"struct.grpc_slice::grpc_slice_data::grpc_slice_refcounted", ptr %15, i32 0, i32 0
  %17 = load i64, ptr %16, align 8, !tbaa !9
  store i64 %17, ptr %6, align 8, !tbaa !12
  %18 = load ptr, ptr %4, align 8, !tbaa !48
  %19 = getelementptr inbounds nuw %struct.grpc_slice, ptr %18, i32 0, i32 1
  %20 = getelementptr inbounds nuw %"struct.grpc_slice::grpc_slice_data::grpc_slice_refcounted", ptr %19, i32 0, i32 1
  %21 = load ptr, ptr %20, align 8, !tbaa !9
  store ptr %21, ptr %7, align 8, !tbaa !10
  br label %32

22:                                               ; preds = %2
  %23 = load ptr, ptr %4, align 8, !tbaa !48
  %24 = getelementptr inbounds nuw %struct.grpc_slice, ptr %23, i32 0, i32 1
  %25 = getelementptr inbounds nuw %"struct.grpc_slice::grpc_slice_data::grpc_slice_inlined", ptr %24, i32 0, i32 0
  %26 = load i8, ptr %25, align 8, !tbaa !9
  %27 = zext i8 %26 to i64
  store i64 %27, ptr %6, align 8, !tbaa !12
  %28 = load ptr, ptr %4, align 8, !tbaa !48
  %29 = getelementptr inbounds nuw %struct.grpc_slice, ptr %28, i32 0, i32 1
  %30 = getelementptr inbounds nuw %"struct.grpc_slice::grpc_slice_data::grpc_slice_inlined", ptr %29, i32 0, i32 1
  %31 = getelementptr inbounds [23 x i8], ptr %30, i64 0, i64 0
  store ptr %31, ptr %7, align 8, !tbaa !10
  br label %32

32:                                               ; preds = %22, %13
  %33 = load i64, ptr %6, align 8, !tbaa !12
  %34 = load ptr, ptr %5, align 8, !tbaa !48
  %35 = getelementptr inbounds nuw %struct.grpc_slice, ptr %34, i32 0, i32 1
  %36 = getelementptr inbounds nuw %"struct.grpc_slice::grpc_slice_data::grpc_slice_refcounted", ptr %35, i32 0, i32 0
  %37 = load i64, ptr %36, align 8, !tbaa !9
  %38 = icmp ne i64 %33, %37
  br i1 %38, label %39, label %40

39:                                               ; preds = %32
  store i32 1, ptr %3, align 4
  store i32 1, ptr %8, align 4
  br label %56

40:                                               ; preds = %32
  %41 = load i64, ptr %6, align 8, !tbaa !12
  %42 = icmp eq i64 %41, 0
  br i1 %42, label %43, label %44

43:                                               ; preds = %40
  store i32 0, ptr %3, align 4
  store i32 1, ptr %8, align 4
  br label %56

44:                                               ; preds = %40
  %45 = load ptr, ptr %7, align 8, !tbaa !10
  %46 = icmp eq ptr %45, null
  br i1 %46, label %47, label %48

47:                                               ; preds = %44
  store i32 1, ptr %3, align 4
  store i32 1, ptr %8, align 4
  br label %56

48:                                               ; preds = %44
  %49 = load ptr, ptr %7, align 8, !tbaa !10
  %50 = load ptr, ptr %5, align 8, !tbaa !48
  %51 = getelementptr inbounds nuw %struct.grpc_slice, ptr %50, i32 0, i32 1
  %52 = getelementptr inbounds nuw %"struct.grpc_slice::grpc_slice_data::grpc_slice_refcounted", ptr %51, i32 0, i32 1
  %53 = load ptr, ptr %52, align 8, !tbaa !9
  %54 = load i64, ptr %6, align 8, !tbaa !12
  %55 = call i32 @memcmp(ptr noundef %49, ptr noundef %53, i64 noundef %54) #19
  store i32 %55, ptr %3, align 4
  store i32 1, ptr %8, align 4
  br label %56

56:                                               ; preds = %48, %47, %43, %39
  call void @llvm.lifetime.end.p0(i64 8, ptr %7) #3
  call void @llvm.lifetime.end.p0(i64 8, ptr %6) #3
  %57 = load i32, ptr %3, align 4
  ret i32 %57
}