; Function Attrs: mustprogress nofree nounwind willreturn memory(read, inaccessiblemem: none) uwtable
define noundef i32 @_Z29grpc_slice_differs_refcountedRK10grpc_sliceS1_(ptr noundef nonnull readonly align 8 dereferenceable(32) %0, ptr noundef nonnull readonly align 8 captures(none) dereferenceable(32) %1) local_unnamed_addr #13 {
  %3 = load ptr, ptr %0, align 8, !tbaa !3
  %.not = icmp eq ptr %3, null
  %4 = getelementptr inbounds nuw i8, ptr %0, i64 8
  %5 = load i64, ptr %4, align 8
  %6 = getelementptr inbounds nuw i8, ptr %0, i64 16
  %7 = load ptr, ptr %6, align 8
  %8 = and i64 %5, 255
  %9 = getelementptr inbounds nuw i8, ptr %0, i64 9
  %.012 = select i1 %.not, i64 %8, i64 %5
  %.0 = select i1 %.not, ptr %9, ptr %7
  %10 = getelementptr inbounds nuw i8, ptr %1, i64 8
  %11 = load i64, ptr %10, align 8, !tbaa !9
  %.not14 = icmp eq i64 %.012, %11
  br i1 %.not14, label %12, label %20

12:                                               ; preds = %2
  %13 = icmp eq i64 %.012, 0
  br i1 %13, label %20, label %14

14:                                               ; preds = %12
  %15 = icmp eq ptr %.0, null
  br i1 %15, label %20, label %16

16:                                               ; preds = %14
  %17 = getelementptr inbounds nuw i8, ptr %1, i64 16
  %18 = load ptr, ptr %17, align 8, !tbaa !9
  %19 = tail call i32 @memcmp(ptr noundef nonnull %.0, ptr noundef %18, i64 noundef %.012) #29
  br label %20

20:                                               ; preds = %14, %12, %2, %16
  %.013 = phi i32 [ %19, %16 ], [ 1, %2 ], [ 0, %12 ], [ 1, %14 ]
  ret i32 %.013
}